target datalayout = "e-m:e-p270:32:32-p271:32:32-p272:64:64-i64:64-i128:128-f80:128-n8:16:32:64-S128"
target triple = "x86_64-pc-linux-gnu"

%struct.AVFilterContext = type { ptr, ptr, ptr, ptr, ptr, i32, ptr, ptr, i32, ptr, ptr, i32, i32, ptr, ptr, ptr, ptr, i32, ptr, i32, i32 }
%struct.XBRContext = type { ptr, i32, ptr, [16777216 x i32] }

@init.xbrfuncs = internal constant [3 x ptr] [ptr @xbr2x, ptr @xbr3x, ptr @xbr4x], align 16

; Function Attrs: cold nounwind optsize uwtable
define internal i32 @init(ptr noundef %0) #0 {
  %2 = alloca ptr, align 8
  %3 = alloca ptr, align 8
  %4 = alloca i32, align 4
  %5 = alloca i32, align 4
  %6 = alloca i32, align 4
  %7 = alloca i32, align 4
  %8 = alloca i32, align 4
  %9 = alloca i32, align 4
  %10 = alloca i32, align 4
  %11 = alloca i32, align 4
  %12 = alloca i32, align 4
  store ptr %0, ptr %2, align 8, !tbaa !4
  call void @llvm.lifetime.start.p0(i64 8, ptr %3) #7
  %13 = load ptr, ptr %2, align 8, !tbaa !4
  %14 = getelementptr inbounds nuw %struct.AVFilterContext, ptr %13, i32 0, i32 9
  %15 = load ptr, ptr %14, align 8, !tbaa !9
  store ptr %15, ptr %3, align 8, !tbaa !22
  call void @llvm.lifetime.start.p0(i64 4, ptr %4) #7
  call void @llvm.lifetime.start.p0(i64 4, ptr %5) #7
  call void @llvm.lifetime.start.p0(i64 4, ptr %6) #7
  call void @llvm.lifetime.start.p0(i64 4, ptr %7) #7
  store i32 -255, ptr %5, align 4, !tbaa !24
  br label %16

16:                                               ; preds = %145, %1
  %17 = load i32, ptr %5, align 4, !tbaa !24
  %18 = icmp slt i32 %17, 256
  br i1 %18, label %19, label %148

19:                                               ; preds = %16
  store i32 -255, ptr %6, align 4, !tbaa !24
  br label %20

20:                                               ; preds = %141, %19
  %21 = load i32, ptr %6, align 4, !tbaa !24
  %22 = icmp slt i32 %21, 256
  br i1 %22, label %23, label %144

23:                                               ; preds = %20
  call void @llvm.lifetime.start.p0(i64 4, ptr %8) #7
  %24 = load i32, ptr %6, align 4, !tbaa !24
  %25 = mul nsw i32 -169, %24
  %26 = load i32, ptr %5, align 4, !tbaa !24
  %27 = mul nsw i32 500, %26
  %28 = add nsw i32 %25, %27
  %29 = sdiv i32 %28, 1000
  %30 = add i32 %29, 128
  store i32 %30, ptr %8, align 4, !tbaa !24
  call void @llvm.lifetime.start.p0(i64 4, ptr %9) #7
  %31 = load i32, ptr %6, align 4, !tbaa !24
  %32 = mul nsw i32 500, %31
  %33 = load i32, ptr %5, align 4, !tbaa !24
  %34 = mul nsw i32 81, %33
  %35 = sub nsw i32 %32, %34
  %36 = sdiv i32 %35, 1000
  %37 = add i32 %36, 128
  store i32 %37, ptr %9, align 4, !tbaa !24
  call void @llvm.lifetime.start.p0(i64 4, ptr %10) #7
  %38 = load i32, ptr %5, align 4, !tbaa !24
  %39 = sub nsw i32 0, %38
  %40 = load i32, ptr %6, align 4, !tbaa !24
  %41 = sub nsw i32 0, %40
  %42 = icmp sgt i32 %39, %41
  br i1 %42, label %43, label %46

43:                                               ; preds = %23
  %44 = load i32, ptr %5, align 4, !tbaa !24
  %45 = sub nsw i32 0, %44
  br label %49

46:                                               ; preds = %23
  %47 = load i32, ptr %6, align 4, !tbaa !24
  %48 = sub nsw i32 0, %47
  br label %49

49:                                               ; preds = %46, %43
  %50 = phi i32 [ %45, %43 ], [ %48, %46 ]
  %51 = icmp sgt i32 %50, 0
  br i1 %51, label %52, label %66

52:                                               ; preds = %49
  %53 = load i32, ptr %5, align 4, !tbaa !24
  %54 = sub nsw i32 0, %53
  %55 = load i32, ptr %6, align 4, !tbaa !24
  %56 = sub nsw i32 0, %55
  %57 = icmp sgt i32 %54, %56
  br i1 %57, label %58, label %61

58:                                               ; preds = %52
  %59 = load i32, ptr %5, align 4, !tbaa !24
  %60 = sub nsw i32 0, %59
  br label %64

61:                                               ; preds = %52
  %62 = load i32, ptr %6, align 4, !tbaa !24
  %63 = sub nsw i32 0, %62
  br label %64

64:                                               ; preds = %61, %58
  %65 = phi i32 [ %60, %58 ], [ %63, %61 ]
  br label %67

66:                                               ; preds = %49
  br label %67

67:                                               ; preds = %66, %64
  %68 = phi i32 [ %65, %64 ], [ 0, %66 ]
  store i32 %68, ptr %10, align 4, !tbaa !24
  call void @llvm.lifetime.start.p0(i64 4, ptr %11) #7
  %69 = load i32, ptr %5, align 4, !tbaa !24
  %70 = sub nsw i32 255, %69
  %71 = load i32, ptr %6, align 4, !tbaa !24
  %72 = sub nsw i32 255, %71
  %73 = icmp sgt i32 %70, %72
  br i1 %73, label %74, label %77

74:                                               ; preds = %67
  %75 = load i32, ptr %6, align 4, !tbaa !24
  %76 = sub nsw i32 255, %75
  br label %80

77:                                               ; preds = %67
  %78 = load i32, ptr %5, align 4, !tbaa !24
  %79 = sub nsw i32 255, %78
  br label %80

80:                                               ; preds = %77, %74
  %81 = phi i32 [ %76, %74 ], [ %79, %77 ]
  %82 = icmp sgt i32 %81, 255
  br i1 %82, label %83, label %84

83:                                               ; preds = %80
  br label %98

84:                                               ; preds = %80
  %85 = load i32, ptr %5, align 4, !tbaa !24
  %86 = sub nsw i32 255, %85
  %87 = load i32, ptr %6, align 4, !tbaa !24
  %88 = sub nsw i32 255, %87
  %89 = icmp sgt i32 %86, %88
  br i1 %89, label %90, label %93

90:                                               ; preds = %84
  %91 = load i32, ptr %6, align 4, !tbaa !24
  %92 = sub nsw i32 255, %91
  br label %96

93:                                               ; preds = %84
  %94 = load i32, ptr %5, align 4, !tbaa !24
  %95 = sub nsw i32 255, %94
  br label %96

96:                                               ; preds = %93, %90
  %97 = phi i32 [ %92, %90 ], [ %95, %93 ]
  br label %98

98:                                               ; preds = %96, %83
  %99 = phi i32 [ 255, %83 ], [ %97, %96 ]
  store i32 %99, ptr %11, align 4, !tbaa !24
  call void @llvm.lifetime.start.p0(i64 4, ptr %12) #7
  %100 = load i32, ptr %6, align 4, !tbaa !24
  %101 = mul nsw i32 299, %100
  %102 = load i32, ptr %10, align 4, !tbaa !24
  %103 = mul nsw i32 1000, %102
  %104 = add nsw i32 %101, %103
  %105 = load i32, ptr %5, align 4, !tbaa !24
  %106 = mul nsw i32 114, %105
  %107 = add nsw i32 %104, %106
  %108 = sdiv i32 %107, 1000
  store i32 %108, ptr %12, align 4, !tbaa !24
  %109 = load i32, ptr %5, align 4, !tbaa !24
  %110 = load i32, ptr %6, align 4, !tbaa !24
  %111 = mul nsw i32 %110, 65536
  %112 = add nsw i32 %109, %111
  %113 = load i32, ptr %10, align 4, !tbaa !24
  %114 = mul nsw i32 65793, %113
  %115 = add nsw i32 %112, %114
  store i32 %115, ptr %4, align 4, !tbaa !24
  %116 = load i32, ptr %10, align 4, !tbaa !24
  store i32 %116, ptr %7, align 4, !tbaa !24
  br label %117

117:                                              ; preds = %137, %98
  %118 = load i32, ptr %7, align 4, !tbaa !24
  %119 = load i32, ptr %11, align 4, !tbaa !24
  %120 = icmp sle i32 %118, %119
  br i1 %120, label %121, label %140

121:                                              ; preds = %117
  %122 = load i32, ptr %12, align 4, !tbaa !24
  %123 = add i32 %122, 1
  store i32 %123, ptr %12, align 4, !tbaa !24
  %124 = shl i32 %122, 16
  %125 = load i32, ptr %8, align 4, !tbaa !24
  %126 = shl i32 %125, 8
  %127 = add i32 %124, %126
  %128 = load i32, ptr %9, align 4, !tbaa !24
  %129 = add i32 %127, %128
  %130 = load ptr, ptr %3, align 8, !tbaa !22
  %131 = getelementptr inbounds nuw %struct.XBRContext, ptr %130, i32 0, i32 3
  %132 = load i32, ptr %4, align 4, !tbaa !24
  %133 = zext i32 %132 to i64
  %134 = getelementptr inbounds nuw [16777216 x i32], ptr %131, i64 0, i64 %133
  store i32 %129, ptr %134, align 4, !tbaa !24
  %135 = load i32, ptr %4, align 4, !tbaa !24
  %136 = add i32 %135, 65793
  store i32 %136, ptr %4, align 4, !tbaa !24
  br label %137

137:                                              ; preds = %121
  %138 = load i32, ptr %7, align 4, !tbaa !24
  %139 = add nsw i32 %138, 1
  store i32 %139, ptr %7, align 4, !tbaa !24
  br label %117, !llvm.loop !25

140:                                              ; preds = %117
  call void @llvm.lifetime.end.p0(i64 4, ptr %12) #7
  call void @llvm.lifetime.end.p0(i64 4, ptr %11) #7
  call void @llvm.lifetime.end.p0(i64 4, ptr %10) #7
  call void @llvm.lifetime.end.p0(i64 4, ptr %9) #7
  call void @llvm.lifetime.end.p0(i64 4, ptr %8) #7
  br label %141

141:                                              ; preds = %140
  %142 = load i32, ptr %6, align 4, !tbaa !24
  %143 = add nsw i32 %142, 1
  store i32 %143, ptr %6, align 4, !tbaa !24
  br label %20, !llvm.loop !27

144:                                              ; preds = %20
  br label %145

145:                                              ; preds = %144
  %146 = load i32, ptr %5, align 4, !tbaa !24
  %147 = add nsw i32 %146, 1
  store i32 %147, ptr %5, align 4, !tbaa !24
  br label %16, !llvm.loop !28

148:                                              ; preds = %16
  %149 = load ptr, ptr %3, align 8, !tbaa !22
  %150 = getelementptr inbounds nuw %struct.XBRContext, ptr %149, i32 0, i32 1
  %151 = load i32, ptr %150, align 8, !tbaa !29
  %152 = sub nsw i32 %151, 2
  %153 = sext i32 %152 to i64
  %154 = getelementptr inbounds [3 x ptr], ptr @init.xbrfuncs, i64 0, i64 %153
  %155 = load ptr, ptr %154, align 8, !tbaa !31
  %156 = load ptr, ptr %3, align 8, !tbaa !22
  %157 = getelementptr inbounds nuw %struct.XBRContext, ptr %156, i32 0, i32 2
  store ptr %155, ptr %157, align 8, !tbaa !32
  call void @llvm.lifetime.end.p0(i64 4, ptr %7) #7
  call void @llvm.lifetime.end.p0(i64 4, ptr %6) #7
  call void @llvm.lifetime.end.p0(i64 4, ptr %5) #7
  call void @llvm.lifetime.end.p0(i64 4, ptr %4) #7
  call void @llvm.lifetime.end.p0(i64 8, ptr %3) #7
  ret i32 0
}