; Function Attrs: cold nofree norecurse nosync nounwind optsize memory(readwrite, inaccessiblemem: none) uwtable
define internal noundef i32 @init(ptr noundef readonly captures(none) %0) #0 {
  %2 = getelementptr inbounds nuw i8, ptr %0, i64 72
  %3 = load ptr, ptr %2, align 8, !tbaa !4
  %4 = getelementptr inbounds nuw i8, ptr %3, i64 24
  br label %.preheader

.preheader:                                       ; preds = %1, %42
  %.04353 = phi i32 [ -255, %1 ], [ %43, %42 ]
  %5 = mul nsw i32 %.04353, 500
  %.neg = mul nsw i32 %.04353, -81
  %6 = sub nsw i32 255, %.04353
  %7 = mul nsw i32 %.04353, 114
  br label %8

8:                                                ; preds = %.preheader, %._crit_edge
  %.04452 = phi i32 [ -255, %.preheader ], [ %41, %._crit_edge ]
  %9 = tail call i32 @llvm.smin.i32(i32 %.04353, i32 %.04452)
  %10 = icmp slt i32 %9, 0
  %11 = sub nsw i32 0, %9
  %spec.select = select i1 %10, i32 %11, i32 0
  %12 = sub nsw i32 255, %.04452
  %13 = tail call i32 @llvm.smin.i32(i32 %6, i32 %12)
  %14 = tail call i32 @llvm.smin.i32(i32 %13, i32 255)
  %.not48 = icmp sgt i32 %spec.select, %14
  br i1 %.not48, label %._crit_edge, label %.lr.ph

.lr.ph:                                           ; preds = %8
  %15 = shl nsw i32 %.04452, 16
  %16 = add nsw i32 %15, %.04353
  %17 = mul nsw i32 %spec.select, 65793
  %18 = add nsw i32 %16, %17
  %19 = mul nsw i32 %.04452, 299
  %20 = add nsw i32 %19, %7
  %21 = mul nsw i32 %spec.select, 1000
  %22 = add i32 %20, %21
  %23 = sdiv i32 %22, 1000
  %24 = mul nsw i32 %.04452, 500
  %25 = add nsw i32 %24, %.neg
  %26 = sdiv i32 %25, 1000
  %27 = mul nsw i32 %.04452, -169
  %28 = add nsw i32 %27, %5
  %29 = sdiv i32 %28, 1000
  %30 = shl nsw i32 %29, 8
  %31 = add nsw i32 %26, 32896
  %32 = add nsw i32 %31, %30
  br label %33

33:                                               ; preds = %.lr.ph, %33
  %.051 = phi i32 [ %23, %.lr.ph ], [ %34, %33 ]
  %.04250 = phi i32 [ %18, %.lr.ph ], [ %39, %33 ]
  %.04549 = phi i32 [ %spec.select, %.lr.ph ], [ %40, %33 ]
  %34 = add nsw i32 %.051, 1
  %35 = shl i32 %.051, 16
  %36 = add i32 %32, %35
  %37 = zext i32 %.04250 to i64
  %38 = getelementptr inbounds nuw [16777216 x i32], ptr %4, i64 0, i64 %37
  store i32 %36, ptr %38, align 4, !tbaa !20
  %39 = add nsw i32 %.04250, 65793
  %40 = add nsw i32 %.04549, 1
  %.not.not = icmp slt i32 %.04549, %14
  br i1 %.not.not, label %33, label %._crit_edge, !llvm.loop !21

._crit_edge:                                      ; preds = %33, %8
  %41 = add nsw i32 %.04452, 1
  %exitcond.not = icmp eq i32 %41, 256
  br i1 %exitcond.not, label %42, label %8, !llvm.loop !23

42:                                               ; preds = %._crit_edge
  %43 = add nsw i32 %.04353, 1
  %exitcond54.not = icmp eq i32 %43, 256
  br i1 %exitcond54.not, label %44, label %.preheader, !llvm.loop !24

44:                                               ; preds = %42
  %45 = getelementptr inbounds nuw i8, ptr %3, i64 8
  %46 = load i32, ptr %45, align 8, !tbaa !25
  %47 = add nsw i32 %46, -2
  %48 = sext i32 %47 to i64
  %49 = getelementptr inbounds [3 x ptr], ptr @init.xbrfuncs, i64 0, i64 %48
  %50 = load ptr, ptr %49, align 8, !tbaa !27
  %51 = getelementptr inbounds nuw i8, ptr %3, i64 16
  store ptr %50, ptr %51, align 8, !tbaa !28
  ret i32 0
}